; Listing generated by Microsoft (R) Optimizing Compiler Version 16.00.40219.01 

	TITLE	M:\sem6_micro\main.c
	.686P
	.XMM
	include listing.inc
	.model	flat

INCLUDELIB MSVCRTD
INCLUDELIB OLDNAMES

PUBLIC	??_C@_0L@HPNOEAAD@result?4txt?$AA@		; `string'
PUBLIC	??_C@_0L@PNNHGMAJ@foobar?4txt?$AA@		; `string'
_DATA	SEGMENT
COMM	_list_node_mem_pool:BYTE:0f80H
_DATA	ENDS
;	COMDAT ??_C@_0L@HPNOEAAD@result?4txt?$AA@
CONST	SEGMENT
??_C@_0L@HPNOEAAD@result?4txt?$AA@ DB 'result.txt', 00H	; `string'
CONST	ENDS
_DATA	SEGMENT
_in_filename DD	FLAT:??_C@_0L@PNNHGMAJ@foobar?4txt?$AA@
_out_filename DD FLAT:??_C@_0L@HPNOEAAD@result?4txt?$AA@
_DATA	ENDS
;	COMDAT ??_C@_0L@PNNHGMAJ@foobar?4txt?$AA@
CONST	SEGMENT
??_C@_0L@PNNHGMAJ@foobar?4txt?$AA@ DB 'foobar.txt', 00H	; `string'
CONST	ENDS
PUBLIC	??_C@_0BF@GADNHKCO@delta?5time?5us?3?5?$CFllu?6?$AA@ ; `string'
PUBLIC	_list_push_back
PUBLIC	_list_get_new_element
PUBLIC	??_C@_0BJ@MFNFDPOP@?$CFllu?5?$DN?5?$CFllu?5?$CL?5?$CI?$CFd?5?$CK?5?$CFd?$CJ?6?$AA@ ; `string'
PUBLIC	_do_mac_operation
PUBLIC	??_C@_0O@GFOGKMCL@A?3?$DM?$CFd?$DO?5B?3?$DM?$CFd?$DO?$AA@ ; `string'
PUBLIC	??_C@_0CC@ECDKLDIE@Error?5while?5reading?5data?5from?3?5?$CF@ ; `string'
PUBLIC	??_C@_0CD@ELLALIEA@Error?5while?5opening?5files?3?5?$CFs?5?1?5@ ; `string'
PUBLIC	??_C@_01NOFIACDB@w?$AA@				; `string'
PUBLIC	??_C@_01KDCPPGHE@r?$AA@				; `string'
PUBLIC	??_C@_0CG@MPOPDLIK@unable?5to?5setup?5a?5stop?5watch?5?9?$DO?5@ ; `string'
PUBLIC	__$ArrayPad$
PUBLIC	_main
EXTRN	__imp__fclose:PROC
EXTRN	_stop_stop_watch:PROC
EXTRN	__imp__fprintf:PROC
EXTRN	__imp__sscanf:PROC
EXTRN	__imp__fgets:PROC
EXTRN	_start_stop_watch:PROC
EXTRN	__imp__feof:PROC
EXTRN	__imp__fopen:PROC
EXTRN	__imp__printf:PROC
EXTRN	_init_stop_watch:PROC
EXTRN	___security_cookie:DWORD
EXTRN	@__security_check_cookie@4:PROC
EXTRN	@_RTC_CheckStackVars@8:PROC
EXTRN	__RTC_CheckEsp:PROC
EXTRN	__RTC_Shutdown:PROC
EXTRN	__RTC_InitBase:PROC
;	COMDAT ??_C@_0BF@GADNHKCO@delta?5time?5us?3?5?$CFllu?6?$AA@
; File m:\sem6_micro\main.c
CONST	SEGMENT
??_C@_0BF@GADNHKCO@delta?5time?5us?3?5?$CFllu?6?$AA@ DB 'delta time us: %'
	DB	'llu', 0aH, 00H				; `string'
CONST	ENDS
;	COMDAT ??_C@_0BJ@MFNFDPOP@?$CFllu?5?$DN?5?$CFllu?5?$CL?5?$CI?$CFd?5?$CK?5?$CFd?$CJ?6?$AA@
CONST	SEGMENT
??_C@_0BJ@MFNFDPOP@?$CFllu?5?$DN?5?$CFllu?5?$CL?5?$CI?$CFd?5?$CK?5?$CFd?$CJ?6?$AA@ DB '%'
	DB	'llu = %llu + (%d * %d)', 0aH, 00H		; `string'
CONST	ENDS
;	COMDAT ??_C@_0O@GFOGKMCL@A?3?$DM?$CFd?$DO?5B?3?$DM?$CFd?$DO?$AA@
CONST	SEGMENT
??_C@_0O@GFOGKMCL@A?3?$DM?$CFd?$DO?5B?3?$DM?$CFd?$DO?$AA@ DB 'A:<%d> B:<%'
	DB	'd>', 00H					; `string'
CONST	ENDS
;	COMDAT ??_C@_0CC@ECDKLDIE@Error?5while?5reading?5data?5from?3?5?$CF@
CONST	SEGMENT
??_C@_0CC@ECDKLDIE@Error?5while?5reading?5data?5from?3?5?$CF@ DB 'Error w'
	DB	'hile reading data from: %s', 00H		; `string'
CONST	ENDS
;	COMDAT ??_C@_0CD@ELLALIEA@Error?5while?5opening?5files?3?5?$CFs?5?1?5@
CONST	SEGMENT
??_C@_0CD@ELLALIEA@Error?5while?5opening?5files?3?5?$CFs?5?1?5@ DB 'Error'
	DB	' while opening files: %s / %s', 00H		; `string'
CONST	ENDS
;	COMDAT ??_C@_01NOFIACDB@w?$AA@
CONST	SEGMENT
??_C@_01NOFIACDB@w?$AA@ DB 'w', 00H			; `string'
CONST	ENDS
;	COMDAT ??_C@_01KDCPPGHE@r?$AA@
CONST	SEGMENT
??_C@_01KDCPPGHE@r?$AA@ DB 'r', 00H			; `string'
CONST	ENDS
;	COMDAT ??_C@_0CG@MPOPDLIK@unable?5to?5setup?5a?5stop?5watch?5?9?$DO?5@
CONST	SEGMENT
??_C@_0CG@MPOPDLIK@unable?5to?5setup?5a?5stop?5watch?5?9?$DO?5@ DB 'unabl'
	DB	'e to setup a stop watch -> abort', 00H	; `string'
CONST	ENDS
;	COMDAT rtc$TMZ
rtc$TMZ	SEGMENT
__RTC_Shutdown.rtc$TMZ DD FLAT:__RTC_Shutdown
rtc$TMZ	ENDS
;	COMDAT rtc$IMZ
rtc$IMZ	SEGMENT
__RTC_InitBase.rtc$IMZ DD FLAT:__RTC_InitBase
; Function compile flags: /Odtp /RTCsu /ZI
rtc$IMZ	ENDS
;	COMDAT _main
_TEXT	SEGMENT
_delta_time$81708 = -444				; size = 8
_prev_result$81707 = -428				; size = 8
_result$81706 = -412					; size = 8
_operand_b$81705 = -396					; size = 4
_operand_a$81704 = -384					; size = 4
_line_buffer$81703 = -372				; size = 256
_counter$81702 = -108					; size = 4
_stat$ = -96						; size = 36
_result_list$ = -52					; size = 8
_out_file_hdl$ = -36					; size = 4
_in_file_hdl$ = -24					; size = 4
_ret$ = -12						; size = 4
__$ArrayPad$ = -4					; size = 4
_argc$ = 8						; size = 4
_argv$ = 12						; size = 4
_main	PROC						; COMDAT

; 169  : {

  00000	55		 push	 ebp
  00001	8b ec		 mov	 ebp, esp
  00003	81 ec 80 02 00
	00		 sub	 esp, 640		; 00000280H
  00009	53		 push	 ebx
  0000a	56		 push	 esi
  0000b	57		 push	 edi
  0000c	8d bd 80 fd ff
	ff		 lea	 edi, DWORD PTR [ebp-640]
  00012	b9 a0 00 00 00	 mov	 ecx, 160		; 000000a0H
  00017	b8 cc cc cc cc	 mov	 eax, -858993460		; ccccccccH
  0001c	f3 ab		 rep stosd
  0001e	a1 00 00 00 00	 mov	 eax, DWORD PTR ___security_cookie
  00023	33 c5		 xor	 eax, ebp
  00025	89 45 fc	 mov	 DWORD PTR __$ArrayPad$[ebp], eax

; 170  : 	int32_t ret = EXIT_SUCCESS;

  00028	c7 45 f4 00 00
	00 00		 mov	 DWORD PTR _ret$[ebp], 0

; 171  : 	FILE* in_file_hdl = NULL;

  0002f	c7 45 e8 00 00
	00 00		 mov	 DWORD PTR _in_file_hdl$[ebp], 0

; 172  : 	FILE* out_file_hdl = NULL;

  00036	c7 45 dc 00 00
	00 00		 mov	 DWORD PTR _out_file_hdl$[ebp], 0

; 173  : 	doubleLinkedList_t result_list;
; 174  : 	//listNode_t *curr = result_list->headOfList;
; 175  : 	//int idx = 0;
; 176  : 	
; 177  : 	statistics_t stat;
; 178  : 	stat.avg_operand_a = 0;

  0003d	c7 45 b0 00 00
	00 00		 mov	 DWORD PTR _stat$[ebp+16], 0

; 179  : 	stat.avg_operand_b = 0;

  00044	c7 45 b4 00 00
	00 00		 mov	 DWORD PTR _stat$[ebp+20], 0

; 180  : 	stat.sum_operand_a = 0;

  0004b	c7 45 b8 00 00
	00 00		 mov	 DWORD PTR _stat$[ebp+24], 0

; 181  : 	stat.sum_operand_b = 0;

  00052	c7 45 bc 00 00
	00 00		 mov	 DWORD PTR _stat$[ebp+28], 0

; 182  : 	stat.max_operand_a = 0;

  00059	c7 45 a4 00 00
	00 00		 mov	 DWORD PTR _stat$[ebp+4], 0

; 183  : 	stat.max_operand_b = 0;

  00060	c7 45 ac 00 00
	00 00		 mov	 DWORD PTR _stat$[ebp+12], 0

; 184  : 	stat.min_operand_a = 0xFFFFFFFF;

  00067	c7 45 a0 ff ff
	ff ff		 mov	 DWORD PTR _stat$[ebp], -1

; 185  : 	stat.min_operand_b = 0xFFFFFFFF;

  0006e	c7 45 a8 ff ff
	ff ff		 mov	 DWORD PTR _stat$[ebp+8], -1

; 186  : 	stat.counter = 0;

  00075	c7 45 c0 00 00
	00 00		 mov	 DWORD PTR _stat$[ebp+32], 0

; 187  : 
; 188  : 	result_list.headOfList = NULL;

  0007c	c7 45 cc 00 00
	00 00		 mov	 DWORD PTR _result_list$[ebp], 0

; 189  : 	result_list.tailOfList = NULL;

  00083	c7 45 d0 00 00
	00 00		 mov	 DWORD PTR _result_list$[ebp+4], 0

; 190  : 
; 191  : 	if(EXIT_FAILURE == init_stop_watch())

  0008a	e8 00 00 00 00	 call	 _init_stop_watch
  0008f	83 f8 01	 cmp	 eax, 1
  00092	75 17		 jne	 SHORT $LN21@main

; 192  : 	{
; 193  : 		printf("unable to setup a stop watch -> abort");

  00094	8b f4		 mov	 esi, esp
  00096	68 00 00 00 00	 push	 OFFSET ??_C@_0CG@MPOPDLIK@unable?5to?5setup?5a?5stop?5watch?5?9?$DO?5@
  0009b	ff 15 00 00 00
	00		 call	 DWORD PTR __imp__printf
  000a1	83 c4 04	 add	 esp, 4
  000a4	3b f4		 cmp	 esi, esp
  000a6	e8 00 00 00 00	 call	 __RTC_CheckEsp
$LN21@main:

; 194  : 	}
; 195  : 
; 196  : 	in_file_hdl = fopen (in_filename,"r");

  000ab	8b f4		 mov	 esi, esp
  000ad	68 00 00 00 00	 push	 OFFSET ??_C@_01KDCPPGHE@r?$AA@
  000b2	a1 00 00 00 00	 mov	 eax, DWORD PTR _in_filename
  000b7	50		 push	 eax
  000b8	ff 15 00 00 00
	00		 call	 DWORD PTR __imp__fopen
  000be	83 c4 08	 add	 esp, 8
  000c1	3b f4		 cmp	 esi, esp
  000c3	e8 00 00 00 00	 call	 __RTC_CheckEsp
  000c8	89 45 e8	 mov	 DWORD PTR _in_file_hdl$[ebp], eax

; 197  : 	out_file_hdl = fopen (out_filename,"w");

  000cb	8b f4		 mov	 esi, esp
  000cd	68 00 00 00 00	 push	 OFFSET ??_C@_01NOFIACDB@w?$AA@
  000d2	a1 00 00 00 00	 mov	 eax, DWORD PTR _out_filename
  000d7	50		 push	 eax
  000d8	ff 15 00 00 00
	00		 call	 DWORD PTR __imp__fopen
  000de	83 c4 08	 add	 esp, 8
  000e1	3b f4		 cmp	 esi, esp
  000e3	e8 00 00 00 00	 call	 __RTC_CheckEsp
  000e8	89 45 dc	 mov	 DWORD PTR _out_file_hdl$[ebp], eax

; 198  : 
; 199  : 	if ((NULL == in_file_hdl) || (NULL == out_filename) )

  000eb	83 7d e8 00	 cmp	 DWORD PTR _in_file_hdl$[ebp], 0
  000ef	74 09		 je	 SHORT $LN19@main
  000f1	83 3d 00 00 00
	00 00		 cmp	 DWORD PTR _out_filename, 0
  000f8	75 30		 jne	 SHORT $LN20@main
$LN19@main:

; 200  : 	{
; 201  : 		printf("Error while opening files: %s / %s",in_filename,out_filename);

  000fa	8b f4		 mov	 esi, esp
  000fc	a1 00 00 00 00	 mov	 eax, DWORD PTR _out_filename
  00101	50		 push	 eax
  00102	8b 0d 00 00 00
	00		 mov	 ecx, DWORD PTR _in_filename
  00108	51		 push	 ecx
  00109	68 00 00 00 00	 push	 OFFSET ??_C@_0CD@ELLALIEA@Error?5while?5opening?5files?3?5?$CFs?5?1?5@
  0010e	ff 15 00 00 00
	00		 call	 DWORD PTR __imp__printf
  00114	83 c4 0c	 add	 esp, 12			; 0000000cH
  00117	3b f4		 cmp	 esi, esp
  00119	e8 00 00 00 00	 call	 __RTC_CheckEsp

; 202  : 		ret = EXIT_FAILURE;

  0011e	c7 45 f4 01 00
	00 00		 mov	 DWORD PTR _ret$[ebp], 1

; 203  : 	}
; 204  : 	else

  00125	e9 28 03 00 00	 jmp	 $LN18@main
$LN20@main:

; 205  : 	{
; 206  : 		uint32_t counter = 0; 

  0012a	c7 45 94 00 00
	00 00		 mov	 DWORD PTR _counter$81702[ebp], 0

; 207  : 		char line_buffer[MAX_LINE_BUFFER];
; 208  : 		uint32_t operand_a = 0; 

  00131	c7 85 80 fe ff
	ff 00 00 00 00	 mov	 DWORD PTR _operand_a$81704[ebp], 0

; 209  : 		uint32_t operand_b = 0; 

  0013b	c7 85 74 fe ff
	ff 00 00 00 00	 mov	 DWORD PTR _operand_b$81705[ebp], 0

; 210  : 		uint64_t result = 0; 

  00145	c7 85 64 fe ff
	ff 00 00 00 00	 mov	 DWORD PTR _result$81706[ebp], 0
  0014f	c7 85 68 fe ff
	ff 00 00 00 00	 mov	 DWORD PTR _result$81706[ebp+4], 0

; 211  : 		uint64_t prev_result = 0; 

  00159	c7 85 54 fe ff
	ff 00 00 00 00	 mov	 DWORD PTR _prev_result$81707[ebp], 0
  00163	c7 85 58 fe ff
	ff 00 00 00 00	 mov	 DWORD PTR _prev_result$81707[ebp+4], 0

; 212  : 		uint64_t delta_time = 0;

  0016d	c7 85 44 fe ff
	ff 00 00 00 00	 mov	 DWORD PTR _delta_time$81708[ebp], 0
  00177	c7 85 48 fe ff
	ff 00 00 00 00	 mov	 DWORD PTR _delta_time$81708[ebp+4], 0
$LN17@main:

; 213  : 		/*
; 214  : 		 * Stop on end of file or on array boundary
; 215  : 		 */
; 216  : 		while((0 == feof(in_file_hdl)) && ( MAX_TEXT_LINES > counter ))

  00181	8b f4		 mov	 esi, esp
  00183	8b 45 e8	 mov	 eax, DWORD PTR _in_file_hdl$[ebp]
  00186	50		 push	 eax
  00187	ff 15 00 00 00
	00		 call	 DWORD PTR __imp__feof
  0018d	83 c4 04	 add	 esp, 4
  00190	3b f4		 cmp	 esi, esp
  00192	e8 00 00 00 00	 call	 __RTC_CheckEsp
  00197	85 c0		 test	 eax, eax
  00199	0f 85 b3 02 00
	00		 jne	 $LN18@main
  0019f	81 7d 94 00 04
	00 00		 cmp	 DWORD PTR _counter$81702[ebp], 1024 ; 00000400H
  001a6	0f 83 a6 02 00
	00		 jae	 $LN18@main

; 217  : 		{
; 218  : 			start_stop_watch();

  001ac	e8 00 00 00 00	 call	 _start_stop_watch

; 219  : 			if(NULL == fgets(line_buffer,MAX_LINE_BUFFER,in_file_hdl))

  001b1	8b f4		 mov	 esi, esp
  001b3	8b 45 e8	 mov	 eax, DWORD PTR _in_file_hdl$[ebp]
  001b6	50		 push	 eax
  001b7	68 00 01 00 00	 push	 256			; 00000100H
  001bc	8d 8d 8c fe ff
	ff		 lea	 ecx, DWORD PTR _line_buffer$81703[ebp]
  001c2	51		 push	 ecx
  001c3	ff 15 00 00 00
	00		 call	 DWORD PTR __imp__fgets
  001c9	83 c4 0c	 add	 esp, 12			; 0000000cH
  001cc	3b f4		 cmp	 esi, esp
  001ce	e8 00 00 00 00	 call	 __RTC_CheckEsp
  001d3	85 c0		 test	 eax, eax
  001d5	75 51		 jne	 SHORT $LN15@main

; 220  : 			{
; 221  : 				if(!feof(in_file_hdl))

  001d7	8b f4		 mov	 esi, esp
  001d9	8b 45 e8	 mov	 eax, DWORD PTR _in_file_hdl$[ebp]
  001dc	50		 push	 eax
  001dd	ff 15 00 00 00
	00		 call	 DWORD PTR __imp__feof
  001e3	83 c4 04	 add	 esp, 4
  001e6	3b f4		 cmp	 esi, esp
  001e8	e8 00 00 00 00	 call	 __RTC_CheckEsp
  001ed	85 c0		 test	 eax, eax
  001ef	75 26		 jne	 SHORT $LN14@main

; 222  : 				{
; 223  : 					printf("Error while reading data from: %s",in_filename);

  001f1	8b f4		 mov	 esi, esp
  001f3	a1 00 00 00 00	 mov	 eax, DWORD PTR _in_filename
  001f8	50		 push	 eax
  001f9	68 00 00 00 00	 push	 OFFSET ??_C@_0CC@ECDKLDIE@Error?5while?5reading?5data?5from?3?5?$CF@
  001fe	ff 15 00 00 00
	00		 call	 DWORD PTR __imp__printf
  00204	83 c4 08	 add	 esp, 8
  00207	3b f4		 cmp	 esi, esp
  00209	e8 00 00 00 00	 call	 __RTC_CheckEsp

; 224  : 					ret = EXIT_FAILURE;

  0020e	c7 45 f4 01 00
	00 00		 mov	 DWORD PTR _ret$[ebp], 1

; 225  : 				}
; 226  : 				else

  00215	eb 07		 jmp	 SHORT $LN13@main
$LN14@main:

; 227  : 				{
; 228  : 					ret = EXIT_SUCCESS;

  00217	c7 45 f4 00 00
	00 00		 mov	 DWORD PTR _ret$[ebp], 0
$LN13@main:

; 229  : 				}
; 230  : 				break;

  0021e	e9 2f 02 00 00	 jmp	 $LN18@main

; 231  :  			}
; 232  : 			else

  00223	e9 ef 01 00 00	 jmp	 $LN12@main
$LN15@main:

; 233  : 			{
; 234  : 				if (2 != sscanf(line_buffer,"A:<%d> B:<%d>",&operand_a,&operand_b))

  00228	8b f4		 mov	 esi, esp
  0022a	8d 85 74 fe ff
	ff		 lea	 eax, DWORD PTR _operand_b$81705[ebp]
  00230	50		 push	 eax
  00231	8d 8d 80 fe ff
	ff		 lea	 ecx, DWORD PTR _operand_a$81704[ebp]
  00237	51		 push	 ecx
  00238	68 00 00 00 00	 push	 OFFSET ??_C@_0O@GFOGKMCL@A?3?$DM?$CFd?$DO?5B?3?$DM?$CFd?$DO?$AA@
  0023d	8d 95 8c fe ff
	ff		 lea	 edx, DWORD PTR _line_buffer$81703[ebp]
  00243	52		 push	 edx
  00244	ff 15 00 00 00
	00		 call	 DWORD PTR __imp__sscanf
  0024a	83 c4 10	 add	 esp, 16			; 00000010H
  0024d	3b f4		 cmp	 esi, esp
  0024f	e8 00 00 00 00	 call	 __RTC_CheckEsp
  00254	83 f8 02	 cmp	 eax, 2
  00257	74 11		 je	 SHORT $LN11@main

; 235  : 				{
; 236  : 					ret = EXIT_FAILURE;

  00259	c7 45 f4 01 00
	00 00		 mov	 DWORD PTR _ret$[ebp], 1

; 237  : 					break;

  00260	e9 ed 01 00 00	 jmp	 $LN18@main

; 238  : 				}
; 239  : 				else

  00265	e9 ad 01 00 00	 jmp	 $LN12@main
$LN11@main:

; 240  : 				{
; 241  : 					// MAC
; 242  : 					if(result_list.tailOfList == NULL)

  0026a	83 7d d0 00	 cmp	 DWORD PTR _result_list$[ebp+4], 0
  0026e	75 16		 jne	 SHORT $LN9@main

; 243  : 					{
; 244  : 						prev_result = 0;

  00270	c7 85 54 fe ff
	ff 00 00 00 00	 mov	 DWORD PTR _prev_result$81707[ebp], 0
  0027a	c7 85 58 fe ff
	ff 00 00 00 00	 mov	 DWORD PTR _prev_result$81707[ebp+4], 0

; 245  : 					}
; 246  : 					else

  00284	eb 15		 jmp	 SHORT $LN8@main
$LN9@main:

; 247  : 					{
; 248  : 						prev_result = result_list.tailOfList->result;

  00286	8b 45 d0	 mov	 eax, DWORD PTR _result_list$[ebp+4]
  00289	8b 48 10	 mov	 ecx, DWORD PTR [eax+16]
  0028c	89 8d 54 fe ff
	ff		 mov	 DWORD PTR _prev_result$81707[ebp], ecx
  00292	8b 50 14	 mov	 edx, DWORD PTR [eax+20]
  00295	89 95 58 fe ff
	ff		 mov	 DWORD PTR _prev_result$81707[ebp+4], edx
$LN8@main:

; 249  : 					}
; 250  : 					result = do_mac_operation(operand_a, operand_b, prev_result);

  0029b	8b 85 58 fe ff
	ff		 mov	 eax, DWORD PTR _prev_result$81707[ebp+4]
  002a1	50		 push	 eax
  002a2	8b 8d 54 fe ff
	ff		 mov	 ecx, DWORD PTR _prev_result$81707[ebp]
  002a8	51		 push	 ecx
  002a9	8b 95 74 fe ff
	ff		 mov	 edx, DWORD PTR _operand_b$81705[ebp]
  002af	52		 push	 edx
  002b0	8b 85 80 fe ff
	ff		 mov	 eax, DWORD PTR _operand_a$81704[ebp]
  002b6	50		 push	 eax
  002b7	e8 00 00 00 00	 call	 _do_mac_operation
  002bc	83 c4 10	 add	 esp, 16			; 00000010H
  002bf	89 85 64 fe ff
	ff		 mov	 DWORD PTR _result$81706[ebp], eax
  002c5	89 95 68 fe ff
	ff		 mov	 DWORD PTR _result$81706[ebp+4], edx

; 251  : 					fprintf(out_file_hdl,"%llu = %llu + (%d * %d)\n",result, prev_result, operand_a, operand_b);

  002cb	8b f4		 mov	 esi, esp
  002cd	8b 85 74 fe ff
	ff		 mov	 eax, DWORD PTR _operand_b$81705[ebp]
  002d3	50		 push	 eax
  002d4	8b 8d 80 fe ff
	ff		 mov	 ecx, DWORD PTR _operand_a$81704[ebp]
  002da	51		 push	 ecx
  002db	8b 95 58 fe ff
	ff		 mov	 edx, DWORD PTR _prev_result$81707[ebp+4]
  002e1	52		 push	 edx
  002e2	8b 85 54 fe ff
	ff		 mov	 eax, DWORD PTR _prev_result$81707[ebp]
  002e8	50		 push	 eax
  002e9	8b 8d 68 fe ff
	ff		 mov	 ecx, DWORD PTR _result$81706[ebp+4]
  002ef	51		 push	 ecx
  002f0	8b 95 64 fe ff
	ff		 mov	 edx, DWORD PTR _result$81706[ebp]
  002f6	52		 push	 edx
  002f7	68 00 00 00 00	 push	 OFFSET ??_C@_0BJ@MFNFDPOP@?$CFllu?5?$DN?5?$CFllu?5?$CL?5?$CI?$CFd?5?$CK?5?$CFd?$CJ?6?$AA@
  002fc	8b 45 dc	 mov	 eax, DWORD PTR _out_file_hdl$[ebp]
  002ff	50		 push	 eax
  00300	ff 15 00 00 00
	00		 call	 DWORD PTR __imp__fprintf
  00306	83 c4 20	 add	 esp, 32			; 00000020H
  00309	3b f4		 cmp	 esi, esp
  0030b	e8 00 00 00 00	 call	 __RTC_CheckEsp

; 252  : 					printf("%llu = %llu + (%d * %d)\n",result, prev_result,operand_a, operand_b);					

  00310	8b f4		 mov	 esi, esp
  00312	8b 85 74 fe ff
	ff		 mov	 eax, DWORD PTR _operand_b$81705[ebp]
  00318	50		 push	 eax
  00319	8b 8d 80 fe ff
	ff		 mov	 ecx, DWORD PTR _operand_a$81704[ebp]
  0031f	51		 push	 ecx
  00320	8b 95 58 fe ff
	ff		 mov	 edx, DWORD PTR _prev_result$81707[ebp+4]
  00326	52		 push	 edx
  00327	8b 85 54 fe ff
	ff		 mov	 eax, DWORD PTR _prev_result$81707[ebp]
  0032d	50		 push	 eax
  0032e	8b 8d 68 fe ff
	ff		 mov	 ecx, DWORD PTR _result$81706[ebp+4]
  00334	51		 push	 ecx
  00335	8b 95 64 fe ff
	ff		 mov	 edx, DWORD PTR _result$81706[ebp]
  0033b	52		 push	 edx
  0033c	68 00 00 00 00	 push	 OFFSET ??_C@_0BJ@MFNFDPOP@?$CFllu?5?$DN?5?$CFllu?5?$CL?5?$CI?$CFd?5?$CK?5?$CFd?$CJ?6?$AA@
  00341	ff 15 00 00 00
	00		 call	 DWORD PTR __imp__printf
  00347	83 c4 1c	 add	 esp, 28			; 0000001cH
  0034a	3b f4		 cmp	 esi, esp
  0034c	e8 00 00 00 00	 call	 __RTC_CheckEsp

; 253  : 					ret = list_push_back(&result_list,list_get_new_element(operand_a,operand_b,result));

  00351	8b 85 68 fe ff
	ff		 mov	 eax, DWORD PTR _result$81706[ebp+4]
  00357	50		 push	 eax
  00358	8b 8d 64 fe ff
	ff		 mov	 ecx, DWORD PTR _result$81706[ebp]
  0035e	51		 push	 ecx
  0035f	8b 95 74 fe ff
	ff		 mov	 edx, DWORD PTR _operand_b$81705[ebp]
  00365	52		 push	 edx
  00366	8b 85 80 fe ff
	ff		 mov	 eax, DWORD PTR _operand_a$81704[ebp]
  0036c	50		 push	 eax
  0036d	e8 00 00 00 00	 call	 _list_get_new_element
  00372	83 c4 10	 add	 esp, 16			; 00000010H
  00375	50		 push	 eax
  00376	8d 4d cc	 lea	 ecx, DWORD PTR _result_list$[ebp]
  00379	51		 push	 ecx
  0037a	e8 00 00 00 00	 call	 _list_push_back
  0037f	83 c4 08	 add	 esp, 8
  00382	89 45 f4	 mov	 DWORD PTR _ret$[ebp], eax

; 254  : 					if(EXIT_FAILURE == ret)

  00385	83 7d f4 01	 cmp	 DWORD PTR _ret$[ebp], 1
  00389	75 05		 jne	 SHORT $LN7@main

; 255  : 					{
; 256  : 						break;

  0038b	e9 c2 00 00 00	 jmp	 $LN18@main
$LN7@main:

; 257  : 					}
; 258  : 					
; 259  : 					counter++;

  00390	8b 45 94	 mov	 eax, DWORD PTR _counter$81702[ebp]
  00393	83 c0 01	 add	 eax, 1
  00396	89 45 94	 mov	 DWORD PTR _counter$81702[ebp], eax

; 260  : 					
; 261  : 					// min
; 262  : 					if(operand_a < stat.min_operand_a)

  00399	8b 85 80 fe ff
	ff		 mov	 eax, DWORD PTR _operand_a$81704[ebp]
  0039f	3b 45 a0	 cmp	 eax, DWORD PTR _stat$[ebp]
  003a2	73 09		 jae	 SHORT $LN6@main

; 263  : 					{
; 264  : 						stat.min_operand_a = operand_a;

  003a4	8b 85 80 fe ff
	ff		 mov	 eax, DWORD PTR _operand_a$81704[ebp]
  003aa	89 45 a0	 mov	 DWORD PTR _stat$[ebp], eax
$LN6@main:

; 265  : 					}
; 266  : 					if(operand_b < stat.min_operand_b)

  003ad	8b 85 74 fe ff
	ff		 mov	 eax, DWORD PTR _operand_b$81705[ebp]
  003b3	3b 45 a8	 cmp	 eax, DWORD PTR _stat$[ebp+8]
  003b6	73 09		 jae	 SHORT $LN5@main

; 267  : 					{
; 268  : 						stat.min_operand_b = operand_b;

  003b8	8b 85 74 fe ff
	ff		 mov	 eax, DWORD PTR _operand_b$81705[ebp]
  003be	89 45 a8	 mov	 DWORD PTR _stat$[ebp+8], eax
$LN5@main:

; 269  : 					}
; 270  : 
; 271  : 					// max
; 272  : 					if(operand_a > stat.max_operand_a)

  003c1	8b 85 80 fe ff
	ff		 mov	 eax, DWORD PTR _operand_a$81704[ebp]
  003c7	3b 45 a4	 cmp	 eax, DWORD PTR _stat$[ebp+4]
  003ca	76 09		 jbe	 SHORT $LN4@main

; 273  : 					{
; 274  : 						stat.max_operand_a = operand_a;

  003cc	8b 85 80 fe ff
	ff		 mov	 eax, DWORD PTR _operand_a$81704[ebp]
  003d2	89 45 a4	 mov	 DWORD PTR _stat$[ebp+4], eax
$LN4@main:

; 275  : 					}
; 276  : 					if(operand_b > stat.max_operand_b)

  003d5	8b 85 74 fe ff
	ff		 mov	 eax, DWORD PTR _operand_b$81705[ebp]
  003db	3b 45 ac	 cmp	 eax, DWORD PTR _stat$[ebp+12]
  003de	76 09		 jbe	 SHORT $LN3@main

; 277  : 					{
; 278  : 						stat.max_operand_b = operand_b;

  003e0	8b 85 74 fe ff
	ff		 mov	 eax, DWORD PTR _operand_b$81705[ebp]
  003e6	89 45 ac	 mov	 DWORD PTR _stat$[ebp+12], eax
$LN3@main:

; 279  : 					}
; 280  : 
; 281  : 					// sum
; 282  : 					stat.sum_operand_a += operand_a;

  003e9	8b 45 b8	 mov	 eax, DWORD PTR _stat$[ebp+24]
  003ec	03 85 80 fe ff
	ff		 add	 eax, DWORD PTR _operand_a$81704[ebp]
  003f2	89 45 b8	 mov	 DWORD PTR _stat$[ebp+24], eax

; 283  : 					stat.sum_operand_b += operand_b;

  003f5	8b 45 bc	 mov	 eax, DWORD PTR _stat$[ebp+28]
  003f8	03 85 74 fe ff
	ff		 add	 eax, DWORD PTR _operand_b$81705[ebp]
  003fe	89 45 bc	 mov	 DWORD PTR _stat$[ebp+28], eax

; 284  : 
; 285  : 					// avg
; 286  : 					stat.avg_operand_a = stat.sum_operand_a / counter;

  00401	8b 45 b8	 mov	 eax, DWORD PTR _stat$[ebp+24]
  00404	33 d2		 xor	 edx, edx
  00406	f7 75 94	 div	 DWORD PTR _counter$81702[ebp]
  00409	89 45 b0	 mov	 DWORD PTR _stat$[ebp+16], eax

; 287  : 					stat.avg_operand_b = stat.sum_operand_b / counter;

  0040c	8b 45 bc	 mov	 eax, DWORD PTR _stat$[ebp+28]
  0040f	33 d2		 xor	 edx, edx
  00411	f7 75 94	 div	 DWORD PTR _counter$81702[ebp]
  00414	89 45 b4	 mov	 DWORD PTR _stat$[ebp+20], eax
$LN12@main:

; 288  : 				}
; 289  : 			}
; 290  : 			delta_time = stop_stop_watch();

  00417	e8 00 00 00 00	 call	 _stop_stop_watch
  0041c	89 85 44 fe ff
	ff		 mov	 DWORD PTR _delta_time$81708[ebp], eax
  00422	89 95 48 fe ff
	ff		 mov	 DWORD PTR _delta_time$81708[ebp+4], edx

; 291  : 			printf("delta time us: %llu\n",delta_time);

  00428	8b f4		 mov	 esi, esp
  0042a	8b 85 48 fe ff
	ff		 mov	 eax, DWORD PTR _delta_time$81708[ebp+4]
  00430	50		 push	 eax
  00431	8b 8d 44 fe ff
	ff		 mov	 ecx, DWORD PTR _delta_time$81708[ebp]
  00437	51		 push	 ecx
  00438	68 00 00 00 00	 push	 OFFSET ??_C@_0BF@GADNHKCO@delta?5time?5us?3?5?$CFllu?6?$AA@
  0043d	ff 15 00 00 00
	00		 call	 DWORD PTR __imp__printf
  00443	83 c4 0c	 add	 esp, 12			; 0000000cH
  00446	3b f4		 cmp	 esi, esp
  00448	e8 00 00 00 00	 call	 __RTC_CheckEsp

; 292  : 		}

  0044d	e9 2f fd ff ff	 jmp	 $LN17@main
$LN18@main:

; 293  : 	}
; 294  : 
; 295  : 	if(NULL != in_file_hdl)

  00452	83 7d e8 00	 cmp	 DWORD PTR _in_file_hdl$[ebp], 0
  00456	74 16		 je	 SHORT $LN2@main

; 296  : 	{
; 297  : 		fclose(in_file_hdl);

  00458	8b f4		 mov	 esi, esp
  0045a	8b 45 e8	 mov	 eax, DWORD PTR _in_file_hdl$[ebp]
  0045d	50		 push	 eax
  0045e	ff 15 00 00 00
	00		 call	 DWORD PTR __imp__fclose
  00464	83 c4 04	 add	 esp, 4
  00467	3b f4		 cmp	 esi, esp
  00469	e8 00 00 00 00	 call	 __RTC_CheckEsp
$LN2@main:

; 298  : 	}
; 299  : 	if(NULL != out_file_hdl)

  0046e	83 7d dc 00	 cmp	 DWORD PTR _out_file_hdl$[ebp], 0
  00472	74 16		 je	 SHORT $LN1@main

; 300  : 	{
; 301  : 		fclose(out_file_hdl);

  00474	8b f4		 mov	 esi, esp
  00476	8b 45 dc	 mov	 eax, DWORD PTR _out_file_hdl$[ebp]
  00479	50		 push	 eax
  0047a	ff 15 00 00 00
	00		 call	 DWORD PTR __imp__fclose
  00480	83 c4 04	 add	 esp, 4
  00483	3b f4		 cmp	 esi, esp
  00485	e8 00 00 00 00	 call	 __RTC_CheckEsp
$LN1@main:

; 302  : 	}
; 303  : 	return ret;

  0048a	8b 45 f4	 mov	 eax, DWORD PTR _ret$[ebp]

; 304  : }

  0048d	52		 push	 edx
  0048e	8b cd		 mov	 ecx, ebp
  00490	50		 push	 eax
  00491	8d 15 00 00 00
	00		 lea	 edx, DWORD PTR $LN30@main
  00497	e8 00 00 00 00	 call	 @_RTC_CheckStackVars@8
  0049c	58		 pop	 eax
  0049d	5a		 pop	 edx
  0049e	5f		 pop	 edi
  0049f	5e		 pop	 esi
  004a0	5b		 pop	 ebx
  004a1	8b 4d fc	 mov	 ecx, DWORD PTR __$ArrayPad$[ebp]
  004a4	33 cd		 xor	 ecx, ebp
  004a6	e8 00 00 00 00	 call	 @__security_check_cookie@4
  004ab	81 c4 80 02 00
	00		 add	 esp, 640		; 00000280H
  004b1	3b ec		 cmp	 ebp, esp
  004b3	e8 00 00 00 00	 call	 __RTC_CheckEsp
  004b8	8b e5		 mov	 esp, ebp
  004ba	5d		 pop	 ebp
  004bb	c3		 ret	 0
$LN30@main:
  004bc	05 00 00 00	 DD	 5
  004c0	00 00 00 00	 DD	 $LN29@main
$LN29@main:
  004c4	cc ff ff ff	 DD	 -52			; ffffffccH
  004c8	08 00 00 00	 DD	 8
  004cc	00 00 00 00	 DD	 $LN24@main
  004d0	a0 ff ff ff	 DD	 -96			; ffffffa0H
  004d4	24 00 00 00	 DD	 36			; 00000024H
  004d8	00 00 00 00	 DD	 $LN25@main
  004dc	8c fe ff ff	 DD	 -372			; fffffe8cH
  004e0	00 01 00 00	 DD	 256			; 00000100H
  004e4	00 00 00 00	 DD	 $LN26@main
  004e8	80 fe ff ff	 DD	 -384			; fffffe80H
  004ec	04 00 00 00	 DD	 4
  004f0	00 00 00 00	 DD	 $LN27@main
  004f4	74 fe ff ff	 DD	 -396			; fffffe74H
  004f8	04 00 00 00	 DD	 4
  004fc	00 00 00 00	 DD	 $LN28@main
$LN28@main:
  00500	6f		 DB	 111			; 0000006fH
  00501	70		 DB	 112			; 00000070H
  00502	65		 DB	 101			; 00000065H
  00503	72		 DB	 114			; 00000072H
  00504	61		 DB	 97			; 00000061H
  00505	6e		 DB	 110			; 0000006eH
  00506	64		 DB	 100			; 00000064H
  00507	5f		 DB	 95			; 0000005fH
  00508	62		 DB	 98			; 00000062H
  00509	00		 DB	 0
$LN27@main:
  0050a	6f		 DB	 111			; 0000006fH
  0050b	70		 DB	 112			; 00000070H
  0050c	65		 DB	 101			; 00000065H
  0050d	72		 DB	 114			; 00000072H
  0050e	61		 DB	 97			; 00000061H
  0050f	6e		 DB	 110			; 0000006eH
  00510	64		 DB	 100			; 00000064H
  00511	5f		 DB	 95			; 0000005fH
  00512	61		 DB	 97			; 00000061H
  00513	00		 DB	 0
$LN26@main:
  00514	6c		 DB	 108			; 0000006cH
  00515	69		 DB	 105			; 00000069H
  00516	6e		 DB	 110			; 0000006eH
  00517	65		 DB	 101			; 00000065H
  00518	5f		 DB	 95			; 0000005fH
  00519	62		 DB	 98			; 00000062H
  0051a	75		 DB	 117			; 00000075H
  0051b	66		 DB	 102			; 00000066H
  0051c	66		 DB	 102			; 00000066H
  0051d	65		 DB	 101			; 00000065H
  0051e	72		 DB	 114			; 00000072H
  0051f	00		 DB	 0
$LN25@main:
  00520	73		 DB	 115			; 00000073H
  00521	74		 DB	 116			; 00000074H
  00522	61		 DB	 97			; 00000061H
  00523	74		 DB	 116			; 00000074H
  00524	00		 DB	 0
$LN24@main:
  00525	72		 DB	 114			; 00000072H
  00526	65		 DB	 101			; 00000065H
  00527	73		 DB	 115			; 00000073H
  00528	75		 DB	 117			; 00000075H
  00529	6c		 DB	 108			; 0000006cH
  0052a	74		 DB	 116			; 00000074H
  0052b	5f		 DB	 95			; 0000005fH
  0052c	6c		 DB	 108			; 0000006cH
  0052d	69		 DB	 105			; 00000069H
  0052e	73		 DB	 115			; 00000073H
  0052f	74		 DB	 116			; 00000074H
  00530	00		 DB	 0
_main	ENDP
; Function compile flags: /Odtp /RTCsu /ZI
_TEXT	ENDS
;	COMDAT _do_mac_operation
_TEXT	SEGMENT
_operand_a$ = 8						; size = 4
_operand_b$ = 12					; size = 4
_result$ = 16						; size = 8
_do_mac_operation PROC					; COMDAT

; 307  : {

  00000	55		 push	 ebp
  00001	8b ec		 mov	 ebp, esp
  00003	81 ec c0 00 00
	00		 sub	 esp, 192		; 000000c0H
  00009	53		 push	 ebx
  0000a	56		 push	 esi
  0000b	57		 push	 edi
  0000c	8d bd 40 ff ff
	ff		 lea	 edi, DWORD PTR [ebp-192]
  00012	b9 30 00 00 00	 mov	 ecx, 48			; 00000030H
  00017	b8 cc cc cc cc	 mov	 eax, -858993460		; ccccccccH
  0001c	f3 ab		 rep stosd

; 308  : 	return result + (operand_a * operand_b);

  0001e	8b 45 08	 mov	 eax, DWORD PTR _operand_a$[ebp]
  00021	0f af 45 0c	 imul	 eax, DWORD PTR _operand_b$[ebp]
  00025	33 d2		 xor	 edx, edx
  00027	03 45 10	 add	 eax, DWORD PTR _result$[ebp]
  0002a	13 55 14	 adc	 edx, DWORD PTR _result$[ebp+4]

; 309  : }

  0002d	5f		 pop	 edi
  0002e	5e		 pop	 esi
  0002f	5b		 pop	 ebx
  00030	8b e5		 mov	 esp, ebp
  00032	5d		 pop	 ebp
  00033	c3		 ret	 0
_do_mac_operation ENDP
_TEXT	ENDS
PUBLIC	_calculate_statistics
; Function compile flags: /Odtp /RTCsu /ZI
;	COMDAT _calculate_statistics
_TEXT	SEGMENT
tv81 = -196						; size = 4
tv76 = -196						; size = 4
tv74 = -196						; size = 4
tv69 = -196						; size = 4
_stat$ = 8						; size = 4
_operand_a$ = 12					; size = 4
_operand_b$ = 16					; size = 4
_calculate_statistics PROC				; COMDAT

; 313  : {

  00000	55		 push	 ebp
  00001	8b ec		 mov	 ebp, esp
  00003	81 ec c4 00 00
	00		 sub	 esp, 196		; 000000c4H
  00009	53		 push	 ebx
  0000a	56		 push	 esi
  0000b	57		 push	 edi
  0000c	8d bd 3c ff ff
	ff		 lea	 edi, DWORD PTR [ebp-196]
  00012	b9 31 00 00 00	 mov	 ecx, 49			; 00000031H
  00017	b8 cc cc cc cc	 mov	 eax, -858993460		; ccccccccH
  0001c	f3 ab		 rep stosd

; 314  : 	if(NULL != stat)

  0001e	83 7d 08 00	 cmp	 DWORD PTR _stat$[ebp], 0
  00022	0f 84 0a 01 00
	00		 je	 $LN2@calculate_

; 315  : 	{
; 316  : 		stat->max_operand_a = max(stat->max_operand_a,operand_a);

  00028	8b 45 08	 mov	 eax, DWORD PTR _stat$[ebp]
  0002b	8b 48 04	 mov	 ecx, DWORD PTR [eax+4]
  0002e	3b 4d 0c	 cmp	 ecx, DWORD PTR _operand_a$[ebp]
  00031	76 0e		 jbe	 SHORT $LN4@calculate_
  00033	8b 55 08	 mov	 edx, DWORD PTR _stat$[ebp]
  00036	8b 42 04	 mov	 eax, DWORD PTR [edx+4]
  00039	89 85 3c ff ff
	ff		 mov	 DWORD PTR tv69[ebp], eax
  0003f	eb 09		 jmp	 SHORT $LN5@calculate_
$LN4@calculate_:
  00041	8b 4d 0c	 mov	 ecx, DWORD PTR _operand_a$[ebp]
  00044	89 8d 3c ff ff
	ff		 mov	 DWORD PTR tv69[ebp], ecx
$LN5@calculate_:
  0004a	8b 55 08	 mov	 edx, DWORD PTR _stat$[ebp]
  0004d	8b 85 3c ff ff
	ff		 mov	 eax, DWORD PTR tv69[ebp]
  00053	89 42 04	 mov	 DWORD PTR [edx+4], eax

; 317  : 		stat->max_operand_b = max(stat->max_operand_b,operand_b);

  00056	8b 45 08	 mov	 eax, DWORD PTR _stat$[ebp]
  00059	8b 48 0c	 mov	 ecx, DWORD PTR [eax+12]
  0005c	3b 4d 10	 cmp	 ecx, DWORD PTR _operand_b$[ebp]
  0005f	76 0e		 jbe	 SHORT $LN6@calculate_
  00061	8b 55 08	 mov	 edx, DWORD PTR _stat$[ebp]
  00064	8b 42 0c	 mov	 eax, DWORD PTR [edx+12]
  00067	89 85 3c ff ff
	ff		 mov	 DWORD PTR tv74[ebp], eax
  0006d	eb 09		 jmp	 SHORT $LN7@calculate_
$LN6@calculate_:
  0006f	8b 4d 10	 mov	 ecx, DWORD PTR _operand_b$[ebp]
  00072	89 8d 3c ff ff
	ff		 mov	 DWORD PTR tv74[ebp], ecx
$LN7@calculate_:
  00078	8b 55 08	 mov	 edx, DWORD PTR _stat$[ebp]
  0007b	8b 85 3c ff ff
	ff		 mov	 eax, DWORD PTR tv74[ebp]
  00081	89 42 0c	 mov	 DWORD PTR [edx+12], eax

; 318  : 		stat->min_operand_a = min(stat->min_operand_a,operand_a);

  00084	8b 45 08	 mov	 eax, DWORD PTR _stat$[ebp]
  00087	8b 08		 mov	 ecx, DWORD PTR [eax]
  00089	3b 4d 0c	 cmp	 ecx, DWORD PTR _operand_a$[ebp]
  0008c	73 0d		 jae	 SHORT $LN8@calculate_
  0008e	8b 55 08	 mov	 edx, DWORD PTR _stat$[ebp]
  00091	8b 02		 mov	 eax, DWORD PTR [edx]
  00093	89 85 3c ff ff
	ff		 mov	 DWORD PTR tv76[ebp], eax
  00099	eb 09		 jmp	 SHORT $LN9@calculate_
$LN8@calculate_:
  0009b	8b 4d 0c	 mov	 ecx, DWORD PTR _operand_a$[ebp]
  0009e	89 8d 3c ff ff
	ff		 mov	 DWORD PTR tv76[ebp], ecx
$LN9@calculate_:
  000a4	8b 55 08	 mov	 edx, DWORD PTR _stat$[ebp]
  000a7	8b 85 3c ff ff
	ff		 mov	 eax, DWORD PTR tv76[ebp]
  000ad	89 02		 mov	 DWORD PTR [edx], eax

; 319  : 		stat->min_operand_b = min(stat->min_operand_b,operand_b);

  000af	8b 45 08	 mov	 eax, DWORD PTR _stat$[ebp]
  000b2	8b 48 08	 mov	 ecx, DWORD PTR [eax+8]
  000b5	3b 4d 10	 cmp	 ecx, DWORD PTR _operand_b$[ebp]
  000b8	73 0e		 jae	 SHORT $LN10@calculate_
  000ba	8b 55 08	 mov	 edx, DWORD PTR _stat$[ebp]
  000bd	8b 42 08	 mov	 eax, DWORD PTR [edx+8]
  000c0	89 85 3c ff ff
	ff		 mov	 DWORD PTR tv81[ebp], eax
  000c6	eb 09		 jmp	 SHORT $LN11@calculate_
$LN10@calculate_:
  000c8	8b 4d 10	 mov	 ecx, DWORD PTR _operand_b$[ebp]
  000cb	89 8d 3c ff ff
	ff		 mov	 DWORD PTR tv81[ebp], ecx
$LN11@calculate_:
  000d1	8b 55 08	 mov	 edx, DWORD PTR _stat$[ebp]
  000d4	8b 85 3c ff ff
	ff		 mov	 eax, DWORD PTR tv81[ebp]
  000da	89 42 08	 mov	 DWORD PTR [edx+8], eax

; 320  : 
; 321  : 		stat->sum_operand_a += operand_a;

  000dd	8b 45 08	 mov	 eax, DWORD PTR _stat$[ebp]
  000e0	8b 48 18	 mov	 ecx, DWORD PTR [eax+24]
  000e3	03 4d 0c	 add	 ecx, DWORD PTR _operand_a$[ebp]
  000e6	8b 55 08	 mov	 edx, DWORD PTR _stat$[ebp]
  000e9	89 4a 18	 mov	 DWORD PTR [edx+24], ecx

; 322  : 		stat->sum_operand_b += operand_b;

  000ec	8b 45 08	 mov	 eax, DWORD PTR _stat$[ebp]
  000ef	8b 48 1c	 mov	 ecx, DWORD PTR [eax+28]
  000f2	03 4d 10	 add	 ecx, DWORD PTR _operand_b$[ebp]
  000f5	8b 55 08	 mov	 edx, DWORD PTR _stat$[ebp]
  000f8	89 4a 1c	 mov	 DWORD PTR [edx+28], ecx

; 323  : 		stat->counter++;

  000fb	8b 45 08	 mov	 eax, DWORD PTR _stat$[ebp]
  000fe	8b 48 20	 mov	 ecx, DWORD PTR [eax+32]
  00101	83 c1 01	 add	 ecx, 1
  00104	8b 55 08	 mov	 edx, DWORD PTR _stat$[ebp]
  00107	89 4a 20	 mov	 DWORD PTR [edx+32], ecx

; 324  : 		stat->avg_operand_a = stat->sum_operand_a/stat->counter;

  0010a	8b 45 08	 mov	 eax, DWORD PTR _stat$[ebp]
  0010d	8b 4d 08	 mov	 ecx, DWORD PTR _stat$[ebp]
  00110	8b 40 18	 mov	 eax, DWORD PTR [eax+24]
  00113	33 d2		 xor	 edx, edx
  00115	f7 71 20	 div	 DWORD PTR [ecx+32]
  00118	8b 55 08	 mov	 edx, DWORD PTR _stat$[ebp]
  0011b	89 42 10	 mov	 DWORD PTR [edx+16], eax

; 325  : 		stat->avg_operand_b = stat->sum_operand_b/stat->counter;

  0011e	8b 45 08	 mov	 eax, DWORD PTR _stat$[ebp]
  00121	8b 4d 08	 mov	 ecx, DWORD PTR _stat$[ebp]
  00124	8b 40 1c	 mov	 eax, DWORD PTR [eax+28]
  00127	33 d2		 xor	 edx, edx
  00129	f7 71 20	 div	 DWORD PTR [ecx+32]
  0012c	8b 55 08	 mov	 edx, DWORD PTR _stat$[ebp]
  0012f	89 42 14	 mov	 DWORD PTR [edx+20], eax
$LN2@calculate_:

; 326  : 	}
; 327  : }

  00132	5f		 pop	 edi
  00133	5e		 pop	 esi
  00134	5b		 pop	 ebx
  00135	8b e5		 mov	 esp, ebp
  00137	5d		 pop	 ebp
  00138	c3		 ret	 0
_calculate_statistics ENDP
_TEXT	ENDS
PUBLIC	_list_insert_before
; Function compile flags: /Odtp /RTCsu /ZI
;	COMDAT _list_insert_before
_TEXT	SEGMENT
_pHelp$81762 = -8					; size = 4
_list$ = 8						; size = 4
_old$ = 12						; size = 4
_elem$ = 16						; size = 4
_list_insert_before PROC				; COMDAT

; 331  : {

  00000	55		 push	 ebp
  00001	8b ec		 mov	 ebp, esp
  00003	81 ec cc 00 00
	00		 sub	 esp, 204		; 000000ccH
  00009	53		 push	 ebx
  0000a	56		 push	 esi
  0000b	57		 push	 edi
  0000c	8d bd 34 ff ff
	ff		 lea	 edi, DWORD PTR [ebp-204]
  00012	b9 33 00 00 00	 mov	 ecx, 51			; 00000033H
  00017	b8 cc cc cc cc	 mov	 eax, -858993460		; ccccccccH
  0001c	f3 ab		 rep stosd

; 332  : 	if(old->pPrev == NULL)

  0001e	8b 45 0c	 mov	 eax, DWORD PTR _old$[ebp]
  00021	83 38 00	 cmp	 DWORD PTR [eax], 0
  00024	75 1c		 jne	 SHORT $LN2@list_inser

; 333  : 	{
; 334  : 		// old ist das erste element
; 335  : 		elem->pNext = old;

  00026	8b 45 10	 mov	 eax, DWORD PTR _elem$[ebp]
  00029	8b 4d 0c	 mov	 ecx, DWORD PTR _old$[ebp]
  0002c	89 48 04	 mov	 DWORD PTR [eax+4], ecx

; 336  : 		old->pPrev = elem;

  0002f	8b 45 0c	 mov	 eax, DWORD PTR _old$[ebp]
  00032	8b 4d 10	 mov	 ecx, DWORD PTR _elem$[ebp]
  00035	89 08		 mov	 DWORD PTR [eax], ecx

; 337  : 		elem->pPrev = NULL;

  00037	8b 45 10	 mov	 eax, DWORD PTR _elem$[ebp]
  0003a	c7 00 00 00 00
	00		 mov	 DWORD PTR [eax], 0

; 338  : 	}
; 339  : 	else

  00040	eb 2a		 jmp	 SHORT $LN1@list_inser
$LN2@list_inser:

; 340  : 	{
; 341  : 		// old ist irgendein element
; 342  : 		listNode_t* pHelp = old->pPrev;

  00042	8b 45 0c	 mov	 eax, DWORD PTR _old$[ebp]
  00045	8b 08		 mov	 ecx, DWORD PTR [eax]
  00047	89 4d f8	 mov	 DWORD PTR _pHelp$81762[ebp], ecx

; 343  : 		pHelp->pNext = elem;

  0004a	8b 45 f8	 mov	 eax, DWORD PTR _pHelp$81762[ebp]
  0004d	8b 4d 10	 mov	 ecx, DWORD PTR _elem$[ebp]
  00050	89 48 04	 mov	 DWORD PTR [eax+4], ecx

; 344  : 		elem->pNext = old;

  00053	8b 45 10	 mov	 eax, DWORD PTR _elem$[ebp]
  00056	8b 4d 0c	 mov	 ecx, DWORD PTR _old$[ebp]
  00059	89 48 04	 mov	 DWORD PTR [eax+4], ecx

; 345  : 		elem->pPrev = pHelp;

  0005c	8b 45 10	 mov	 eax, DWORD PTR _elem$[ebp]
  0005f	8b 4d f8	 mov	 ecx, DWORD PTR _pHelp$81762[ebp]
  00062	89 08		 mov	 DWORD PTR [eax], ecx

; 346  : 		old->pPrev = elem;

  00064	8b 45 0c	 mov	 eax, DWORD PTR _old$[ebp]
  00067	8b 4d 10	 mov	 ecx, DWORD PTR _elem$[ebp]
  0006a	89 08		 mov	 DWORD PTR [eax], ecx
$LN1@list_inser:

; 347  : 	}
; 348  : 	return EXIT_SUCCESS;

  0006c	33 c0		 xor	 eax, eax

; 349  : }

  0006e	5f		 pop	 edi
  0006f	5e		 pop	 esi
  00070	5b		 pop	 ebx
  00071	8b e5		 mov	 esp, ebp
  00073	5d		 pop	 ebp
  00074	c3		 ret	 0
_list_insert_before ENDP
_TEXT	ENDS
PUBLIC	_list_insert_after
; Function compile flags: /Odtp /RTCsu /ZI
;	COMDAT _list_insert_after
_TEXT	SEGMENT
_pHelp$81774 = -8					; size = 4
_list$ = 8						; size = 4
_old$ = 12						; size = 4
_elem$ = 16						; size = 4
_list_insert_after PROC					; COMDAT

; 353  : {

  00000	55		 push	 ebp
  00001	8b ec		 mov	 ebp, esp
  00003	81 ec cc 00 00
	00		 sub	 esp, 204		; 000000ccH
  00009	53		 push	 ebx
  0000a	56		 push	 esi
  0000b	57		 push	 edi
  0000c	8d bd 34 ff ff
	ff		 lea	 edi, DWORD PTR [ebp-204]
  00012	b9 33 00 00 00	 mov	 ecx, 51			; 00000033H
  00017	b8 cc cc cc cc	 mov	 eax, -858993460		; ccccccccH
  0001c	f3 ab		 rep stosd

; 354  : 	if(old->pNext == NULL)

  0001e	8b 45 0c	 mov	 eax, DWORD PTR _old$[ebp]
  00021	83 78 04 00	 cmp	 DWORD PTR [eax+4], 0
  00025	75 1d		 jne	 SHORT $LN2@list_inser@2

; 355  : 	{
; 356  : 		// old ist das letze element
; 357  : 		old->pNext = elem;

  00027	8b 45 0c	 mov	 eax, DWORD PTR _old$[ebp]
  0002a	8b 4d 10	 mov	 ecx, DWORD PTR _elem$[ebp]
  0002d	89 48 04	 mov	 DWORD PTR [eax+4], ecx

; 358  : 		elem->pNext = NULL;

  00030	8b 45 10	 mov	 eax, DWORD PTR _elem$[ebp]
  00033	c7 40 04 00 00
	00 00		 mov	 DWORD PTR [eax+4], 0

; 359  : 		elem->pPrev = old;

  0003a	8b 45 10	 mov	 eax, DWORD PTR _elem$[ebp]
  0003d	8b 4d 0c	 mov	 ecx, DWORD PTR _old$[ebp]
  00040	89 08		 mov	 DWORD PTR [eax], ecx

; 360  : 	}
; 361  : 	else

  00042	eb 2b		 jmp	 SHORT $LN1@list_inser@2
$LN2@list_inser@2:

; 362  : 	{
; 363  : 		// old ist irgendein element
; 364  : 		listNode_t* pHelp = old->pNext;

  00044	8b 45 0c	 mov	 eax, DWORD PTR _old$[ebp]
  00047	8b 48 04	 mov	 ecx, DWORD PTR [eax+4]
  0004a	89 4d f8	 mov	 DWORD PTR _pHelp$81774[ebp], ecx

; 365  : 		old->pNext = elem;

  0004d	8b 45 0c	 mov	 eax, DWORD PTR _old$[ebp]
  00050	8b 4d 10	 mov	 ecx, DWORD PTR _elem$[ebp]
  00053	89 48 04	 mov	 DWORD PTR [eax+4], ecx

; 366  : 		elem->pNext = pHelp;

  00056	8b 45 10	 mov	 eax, DWORD PTR _elem$[ebp]
  00059	8b 4d f8	 mov	 ecx, DWORD PTR _pHelp$81774[ebp]
  0005c	89 48 04	 mov	 DWORD PTR [eax+4], ecx

; 367  : 		elem->pPrev = old;

  0005f	8b 45 10	 mov	 eax, DWORD PTR _elem$[ebp]
  00062	8b 4d 0c	 mov	 ecx, DWORD PTR _old$[ebp]
  00065	89 08		 mov	 DWORD PTR [eax], ecx

; 368  : 		pHelp->pPrev = elem;

  00067	8b 45 f8	 mov	 eax, DWORD PTR _pHelp$81774[ebp]
  0006a	8b 4d 10	 mov	 ecx, DWORD PTR _elem$[ebp]
  0006d	89 08		 mov	 DWORD PTR [eax], ecx
$LN1@list_inser@2:

; 369  : 	}
; 370  : 	return EXIT_SUCCESS;

  0006f	33 c0		 xor	 eax, eax

; 371  : }

  00071	5f		 pop	 edi
  00072	5e		 pop	 esi
  00073	5b		 pop	 ebx
  00074	8b e5		 mov	 esp, ebp
  00076	5d		 pop	 ebp
  00077	c3		 ret	 0
_list_insert_after ENDP
_TEXT	ENDS
PUBLIC	_static_free
PUBLIC	_list_free_element
; Function compile flags: /Odtp /RTCsu /ZI
;	COMDAT _list_free_element
_TEXT	SEGMENT
_elem$ = 8						; size = 4
_list_free_element PROC					; COMDAT

; 375  : {

  00000	55		 push	 ebp
  00001	8b ec		 mov	 ebp, esp
  00003	81 ec c0 00 00
	00		 sub	 esp, 192		; 000000c0H
  00009	53		 push	 ebx
  0000a	56		 push	 esi
  0000b	57		 push	 edi
  0000c	8d bd 40 ff ff
	ff		 lea	 edi, DWORD PTR [ebp-192]
  00012	b9 30 00 00 00	 mov	 ecx, 48			; 00000030H
  00017	b8 cc cc cc cc	 mov	 eax, -858993460		; ccccccccH
  0001c	f3 ab		 rep stosd

; 376  : 	if(NULL != elem)

  0001e	83 7d 08 00	 cmp	 DWORD PTR _elem$[ebp], 0
  00022	74 54		 je	 SHORT $LN6@list_free_

; 377  : 	{
; 378  : 		// elem aus der liste entfernen
; 379  : 		if(elem->pNext == NULL)

  00024	8b 45 08	 mov	 eax, DWORD PTR _elem$[ebp]
  00027	83 78 04 00	 cmp	 DWORD PTR [eax+4], 0
  0002b	75 0e		 jne	 SHORT $LN4@list_free_

; 380  : 		{
; 381  : 			// elem ist das letze
; 382  : 			elem->pPrev->pNext = NULL;

  0002d	8b 45 08	 mov	 eax, DWORD PTR _elem$[ebp]
  00030	8b 08		 mov	 ecx, DWORD PTR [eax]
  00032	c7 41 04 00 00
	00 00		 mov	 DWORD PTR [ecx+4], 0
  00039	eb 31		 jmp	 SHORT $LN3@list_free_
$LN4@list_free_:

; 383  : 		}
; 384  : 		else if(elem->pPrev == NULL)

  0003b	8b 45 08	 mov	 eax, DWORD PTR _elem$[ebp]
  0003e	83 38 00	 cmp	 DWORD PTR [eax], 0
  00041	75 0e		 jne	 SHORT $LN2@list_free_

; 385  : 		{
; 386  : 			// elem das erste
; 387  : 			elem->pNext->pPrev = NULL;

  00043	8b 45 08	 mov	 eax, DWORD PTR _elem$[ebp]
  00046	8b 48 04	 mov	 ecx, DWORD PTR [eax+4]
  00049	c7 01 00 00 00
	00		 mov	 DWORD PTR [ecx], 0

; 388  : 		}
; 389  : 		else

  0004f	eb 1b		 jmp	 SHORT $LN3@list_free_
$LN2@list_free_:

; 390  : 		{
; 391  : 			// elem ist in der Mitte
; 392  : 			elem->pPrev->pNext = elem->pNext;

  00051	8b 45 08	 mov	 eax, DWORD PTR _elem$[ebp]
  00054	8b 08		 mov	 ecx, DWORD PTR [eax]
  00056	8b 55 08	 mov	 edx, DWORD PTR _elem$[ebp]
  00059	8b 42 04	 mov	 eax, DWORD PTR [edx+4]
  0005c	89 41 04	 mov	 DWORD PTR [ecx+4], eax

; 393  : 			elem->pNext->pPrev = elem->pPrev;

  0005f	8b 45 08	 mov	 eax, DWORD PTR _elem$[ebp]
  00062	8b 48 04	 mov	 ecx, DWORD PTR [eax+4]
  00065	8b 55 08	 mov	 edx, DWORD PTR _elem$[ebp]
  00068	8b 02		 mov	 eax, DWORD PTR [edx]
  0006a	89 01		 mov	 DWORD PTR [ecx], eax
$LN3@list_free_:

; 394  : 		}
; 395  : 		// elem freigeben
; 396  : #if STATIC_MEM == 0
; 397  : 		free(elem);
; 398  : #else
; 399  : 		static_free(elem);

  0006c	8b 45 08	 mov	 eax, DWORD PTR _elem$[ebp]
  0006f	50		 push	 eax
  00070	e8 00 00 00 00	 call	 _static_free
  00075	83 c4 04	 add	 esp, 4
$LN6@list_free_:

; 400  : #endif
; 401  : 	}
; 402  : }

  00078	5f		 pop	 edi
  00079	5e		 pop	 esi
  0007a	5b		 pop	 ebx
  0007b	81 c4 c0 00 00
	00		 add	 esp, 192		; 000000c0H
  00081	3b ec		 cmp	 ebp, esp
  00083	e8 00 00 00 00	 call	 __RTC_CheckEsp
  00088	8b e5		 mov	 esp, ebp
  0008a	5d		 pop	 ebp
  0008b	c3		 ret	 0
_list_free_element ENDP
_TEXT	ENDS
PUBLIC	_list_push_front
; Function compile flags: /Odtp /RTCsu /ZI
;	COMDAT _list_push_front
_TEXT	SEGMENT
_list$ = 8						; size = 4
_elem$ = 12						; size = 4
_list_push_front PROC					; COMDAT

; 406  : {

  00000	55		 push	 ebp
  00001	8b ec		 mov	 ebp, esp
  00003	81 ec c0 00 00
	00		 sub	 esp, 192		; 000000c0H
  00009	53		 push	 ebx
  0000a	56		 push	 esi
  0000b	57		 push	 edi
  0000c	8d bd 40 ff ff
	ff		 lea	 edi, DWORD PTR [ebp-192]
  00012	b9 30 00 00 00	 mov	 ecx, 48			; 00000030H
  00017	b8 cc cc cc cc	 mov	 eax, -858993460		; ccccccccH
  0001c	f3 ab		 rep stosd

; 407  : 	if(list->headOfList == NULL && list->tailOfList == NULL)

  0001e	8b 45 08	 mov	 eax, DWORD PTR _list$[ebp]
  00021	83 38 00	 cmp	 DWORD PTR [eax], 0
  00024	75 1c		 jne	 SHORT $LN4@list_push_
  00026	8b 45 08	 mov	 eax, DWORD PTR _list$[ebp]
  00029	83 78 04 00	 cmp	 DWORD PTR [eax+4], 0
  0002d	75 13		 jne	 SHORT $LN4@list_push_

; 408  : 	{
; 409  : 		// list initialisieren
; 410  : 		list->headOfList = elem;

  0002f	8b 45 08	 mov	 eax, DWORD PTR _list$[ebp]
  00032	8b 4d 0c	 mov	 ecx, DWORD PTR _elem$[ebp]
  00035	89 08		 mov	 DWORD PTR [eax], ecx

; 411  : 		list->tailOfList = elem;

  00037	8b 45 08	 mov	 eax, DWORD PTR _list$[ebp]
  0003a	8b 4d 0c	 mov	 ecx, DWORD PTR _elem$[ebp]
  0003d	89 48 04	 mov	 DWORD PTR [eax+4], ecx
  00040	eb 18		 jmp	 SHORT $LN3@list_push_
$LN4@list_push_:

; 412  : 	}
; 413  : 	else if(list->headOfList == NULL || list->tailOfList == NULL)

  00042	8b 45 08	 mov	 eax, DWORD PTR _list$[ebp]
  00045	83 38 00	 cmp	 DWORD PTR [eax], 0
  00048	74 09		 je	 SHORT $LN1@list_push_
  0004a	8b 45 08	 mov	 eax, DWORD PTR _list$[ebp]
  0004d	83 78 04 00	 cmp	 DWORD PTR [eax+4], 0
  00051	75 07		 jne	 SHORT $LN3@list_push_
$LN1@list_push_:

; 414  : 	{
; 415  : 		// Fehler
; 416  : 		return EXIT_FAILURE;

  00053	b8 01 00 00 00	 mov	 eax, 1
  00058	eb 28		 jmp	 SHORT $LN5@list_push_
$LN3@list_push_:

; 417  : 	}
; 418  : 	elem->pNext = list->headOfList;

  0005a	8b 45 0c	 mov	 eax, DWORD PTR _elem$[ebp]
  0005d	8b 4d 08	 mov	 ecx, DWORD PTR _list$[ebp]
  00060	8b 11		 mov	 edx, DWORD PTR [ecx]
  00062	89 50 04	 mov	 DWORD PTR [eax+4], edx

; 419  : 	elem->pPrev = NULL;

  00065	8b 45 0c	 mov	 eax, DWORD PTR _elem$[ebp]
  00068	c7 00 00 00 00
	00		 mov	 DWORD PTR [eax], 0

; 420  : 	list->headOfList->pPrev = elem;

  0006e	8b 45 08	 mov	 eax, DWORD PTR _list$[ebp]
  00071	8b 08		 mov	 ecx, DWORD PTR [eax]
  00073	8b 55 0c	 mov	 edx, DWORD PTR _elem$[ebp]
  00076	89 11		 mov	 DWORD PTR [ecx], edx

; 421  : 	list->headOfList = elem;

  00078	8b 45 08	 mov	 eax, DWORD PTR _list$[ebp]
  0007b	8b 4d 0c	 mov	 ecx, DWORD PTR _elem$[ebp]
  0007e	89 08		 mov	 DWORD PTR [eax], ecx

; 422  : 
; 423  : 	return EXIT_SUCCESS;

  00080	33 c0		 xor	 eax, eax
$LN5@list_push_:

; 424  : }

  00082	5f		 pop	 edi
  00083	5e		 pop	 esi
  00084	5b		 pop	 ebx
  00085	8b e5		 mov	 esp, ebp
  00087	5d		 pop	 ebp
  00088	c3		 ret	 0
_list_push_front ENDP
; Function compile flags: /Odtp /RTCsu /ZI
_TEXT	ENDS
;	COMDAT _list_push_back
_TEXT	SEGMENT
_list$ = 8						; size = 4
_elem$ = 12						; size = 4
_list_push_back PROC					; COMDAT

; 428  : {

  00000	55		 push	 ebp
  00001	8b ec		 mov	 ebp, esp
  00003	81 ec c0 00 00
	00		 sub	 esp, 192		; 000000c0H
  00009	53		 push	 ebx
  0000a	56		 push	 esi
  0000b	57		 push	 edi
  0000c	8d bd 40 ff ff
	ff		 lea	 edi, DWORD PTR [ebp-192]
  00012	b9 30 00 00 00	 mov	 ecx, 48			; 00000030H
  00017	b8 cc cc cc cc	 mov	 eax, -858993460		; ccccccccH
  0001c	f3 ab		 rep stosd

; 429  : 	if(list->headOfList == NULL && list->tailOfList == NULL)

  0001e	8b 45 08	 mov	 eax, DWORD PTR _list$[ebp]
  00021	83 38 00	 cmp	 DWORD PTR [eax], 0
  00024	75 1c		 jne	 SHORT $LN4@list_push_@2
  00026	8b 45 08	 mov	 eax, DWORD PTR _list$[ebp]
  00029	83 78 04 00	 cmp	 DWORD PTR [eax+4], 0
  0002d	75 13		 jne	 SHORT $LN4@list_push_@2

; 430  : 	{
; 431  : 		// list initialisieren
; 432  : 		list->headOfList = elem;

  0002f	8b 45 08	 mov	 eax, DWORD PTR _list$[ebp]
  00032	8b 4d 0c	 mov	 ecx, DWORD PTR _elem$[ebp]
  00035	89 08		 mov	 DWORD PTR [eax], ecx

; 433  : 		list->tailOfList = elem;

  00037	8b 45 08	 mov	 eax, DWORD PTR _list$[ebp]
  0003a	8b 4d 0c	 mov	 ecx, DWORD PTR _elem$[ebp]
  0003d	89 48 04	 mov	 DWORD PTR [eax+4], ecx
  00040	eb 18		 jmp	 SHORT $LN3@list_push_@2
$LN4@list_push_@2:

; 434  : 	}
; 435  : 	else if(list->headOfList == NULL || list->tailOfList == NULL)

  00042	8b 45 08	 mov	 eax, DWORD PTR _list$[ebp]
  00045	83 38 00	 cmp	 DWORD PTR [eax], 0
  00048	74 09		 je	 SHORT $LN1@list_push_@2
  0004a	8b 45 08	 mov	 eax, DWORD PTR _list$[ebp]
  0004d	83 78 04 00	 cmp	 DWORD PTR [eax+4], 0
  00051	75 07		 jne	 SHORT $LN3@list_push_@2
$LN1@list_push_@2:

; 436  : 	{
; 437  : 		// Fehler
; 438  : 		return EXIT_FAILURE;

  00053	b8 01 00 00 00	 mov	 eax, 1
  00058	eb 2c		 jmp	 SHORT $LN5@list_push_@2
$LN3@list_push_@2:

; 439  : 	}
; 440  : 	elem->pPrev = list->tailOfList;

  0005a	8b 45 0c	 mov	 eax, DWORD PTR _elem$[ebp]
  0005d	8b 4d 08	 mov	 ecx, DWORD PTR _list$[ebp]
  00060	8b 51 04	 mov	 edx, DWORD PTR [ecx+4]
  00063	89 10		 mov	 DWORD PTR [eax], edx

; 441  : 	elem->pNext = NULL;

  00065	8b 45 0c	 mov	 eax, DWORD PTR _elem$[ebp]
  00068	c7 40 04 00 00
	00 00		 mov	 DWORD PTR [eax+4], 0

; 442  : 	list->tailOfList->pNext = elem;

  0006f	8b 45 08	 mov	 eax, DWORD PTR _list$[ebp]
  00072	8b 48 04	 mov	 ecx, DWORD PTR [eax+4]
  00075	8b 55 0c	 mov	 edx, DWORD PTR _elem$[ebp]
  00078	89 51 04	 mov	 DWORD PTR [ecx+4], edx

; 443  : 	list->tailOfList = elem;

  0007b	8b 45 08	 mov	 eax, DWORD PTR _list$[ebp]
  0007e	8b 4d 0c	 mov	 ecx, DWORD PTR _elem$[ebp]
  00081	89 48 04	 mov	 DWORD PTR [eax+4], ecx

; 444  : 
; 445  : 	return EXIT_SUCCESS;

  00084	33 c0		 xor	 eax, eax
$LN5@list_push_@2:

; 446  : }

  00086	5f		 pop	 edi
  00087	5e		 pop	 esi
  00088	5b		 pop	 ebx
  00089	8b e5		 mov	 esp, ebp
  0008b	5d		 pop	 ebp
  0008c	c3		 ret	 0
_list_push_back ENDP
_TEXT	ENDS
PUBLIC	??_C@_0BJ@JNIONALK@error?5allocating?5memory?$CB?$AA@ ; `string'
PUBLIC	_static_malloc
;	COMDAT ??_C@_0BJ@JNIONALK@error?5allocating?5memory?$CB?$AA@
CONST	SEGMENT
??_C@_0BJ@JNIONALK@error?5allocating?5memory?$CB?$AA@ DB 'error allocatin'
	DB	'g memory!', 00H				; `string'
; Function compile flags: /Odtp /RTCsu /ZI
CONST	ENDS
;	COMDAT _list_get_new_element
_TEXT	SEGMENT
_pHelp$ = -8						; size = 4
_operand_a$ = 8						; size = 4
_operand_b$ = 12					; size = 4
_result$ = 16						; size = 8
_list_get_new_element PROC				; COMDAT

; 450  : {

  00000	55		 push	 ebp
  00001	8b ec		 mov	 ebp, esp
  00003	81 ec cc 00 00
	00		 sub	 esp, 204		; 000000ccH
  00009	53		 push	 ebx
  0000a	56		 push	 esi
  0000b	57		 push	 edi
  0000c	8d bd 34 ff ff
	ff		 lea	 edi, DWORD PTR [ebp-204]
  00012	b9 33 00 00 00	 mov	 ecx, 51			; 00000033H
  00017	b8 cc cc cc cc	 mov	 eax, -858993460		; ccccccccH
  0001c	f3 ab		 rep stosd

; 451  : 	listNode_t* pHelp = NULL;

  0001e	c7 45 f8 00 00
	00 00		 mov	 DWORD PTR _pHelp$[ebp], 0

; 452  : #if STATIC_MEM == 0
; 453  : 	 pHelp = (listNode_t*)malloc(sizeof(listNode_t));
; 454  : #else
; 455  : 	pHelp = static_malloc();

  00025	e8 00 00 00 00	 call	 _static_malloc
  0002a	89 45 f8	 mov	 DWORD PTR _pHelp$[ebp], eax

; 456  : 	if(NULL == pHelp)

  0002d	83 7d f8 00	 cmp	 DWORD PTR _pHelp$[ebp], 0
  00031	75 17		 jne	 SHORT $LN1@list_get_n

; 457  : 	{
; 458  : 		printf("error allocating memory!");

  00033	8b f4		 mov	 esi, esp
  00035	68 00 00 00 00	 push	 OFFSET ??_C@_0BJ@JNIONALK@error?5allocating?5memory?$CB?$AA@
  0003a	ff 15 00 00 00
	00		 call	 DWORD PTR __imp__printf
  00040	83 c4 04	 add	 esp, 4
  00043	3b f4		 cmp	 esi, esp
  00045	e8 00 00 00 00	 call	 __RTC_CheckEsp
$LN1@list_get_n:

; 459  : 	}
; 460  : #endif
; 461  : 	pHelp->operand_a = operand_a;

  0004a	8b 45 f8	 mov	 eax, DWORD PTR _pHelp$[ebp]
  0004d	8b 4d 08	 mov	 ecx, DWORD PTR _operand_a$[ebp]
  00050	89 48 08	 mov	 DWORD PTR [eax+8], ecx

; 462  : 	pHelp->operand_b = operand_b;

  00053	8b 45 f8	 mov	 eax, DWORD PTR _pHelp$[ebp]
  00056	8b 4d 0c	 mov	 ecx, DWORD PTR _operand_b$[ebp]
  00059	89 48 0c	 mov	 DWORD PTR [eax+12], ecx

; 463  : 	pHelp->result = result;

  0005c	8b 45 f8	 mov	 eax, DWORD PTR _pHelp$[ebp]
  0005f	8b 4d 10	 mov	 ecx, DWORD PTR _result$[ebp]
  00062	89 48 10	 mov	 DWORD PTR [eax+16], ecx
  00065	8b 55 14	 mov	 edx, DWORD PTR _result$[ebp+4]
  00068	89 50 14	 mov	 DWORD PTR [eax+20], edx

; 464  : 	pHelp->pNext = NULL;

  0006b	8b 45 f8	 mov	 eax, DWORD PTR _pHelp$[ebp]
  0006e	c7 40 04 00 00
	00 00		 mov	 DWORD PTR [eax+4], 0

; 465  : 	pHelp->pPrev = NULL;

  00075	8b 45 f8	 mov	 eax, DWORD PTR _pHelp$[ebp]
  00078	c7 00 00 00 00
	00		 mov	 DWORD PTR [eax], 0

; 466  : 
; 467  : 	return pHelp;

  0007e	8b 45 f8	 mov	 eax, DWORD PTR _pHelp$[ebp]

; 468  : }

  00081	5f		 pop	 edi
  00082	5e		 pop	 esi
  00083	5b		 pop	 ebx
  00084	81 c4 cc 00 00
	00		 add	 esp, 204		; 000000ccH
  0008a	3b ec		 cmp	 ebp, esp
  0008c	e8 00 00 00 00	 call	 __RTC_CheckEsp
  00091	8b e5		 mov	 esp, ebp
  00093	5d		 pop	 ebp
  00094	c3		 ret	 0
_list_get_new_element ENDP
; Function compile flags: /Odtp /RTCsu /ZI
_TEXT	ENDS
;	COMDAT _static_malloc
_TEXT	SEGMENT
_elem$ = -20						; size = 4
_i$ = -8						; size = 4
_static_malloc PROC					; COMDAT

; 472  : {

  00000	55		 push	 ebp
  00001	8b ec		 mov	 ebp, esp
  00003	81 ec d8 00 00
	00		 sub	 esp, 216		; 000000d8H
  00009	53		 push	 ebx
  0000a	56		 push	 esi
  0000b	57		 push	 edi
  0000c	8d bd 28 ff ff
	ff		 lea	 edi, DWORD PTR [ebp-216]
  00012	b9 36 00 00 00	 mov	 ecx, 54			; 00000036H
  00017	b8 cc cc cc cc	 mov	 eax, -858993460		; ccccccccH
  0001c	f3 ab		 rep stosd

; 473  : 	int i;
; 474  : 	listNode_t* elem = NULL;

  0001e	c7 45 ec 00 00
	00 00		 mov	 DWORD PTR _elem$[ebp], 0

; 475  : 
; 476  : 	// ber ganzen mempool iterieren und freies suchen
; 477  : 	for(i = 0; i < MEM_POOL_SIZE; i++)

  00025	c7 45 f8 00 00
	00 00		 mov	 DWORD PTR _i$[ebp], 0
  0002c	eb 09		 jmp	 SHORT $LN4@static_mal
$LN3@static_mal:
  0002e	8b 45 f8	 mov	 eax, DWORD PTR _i$[ebp]
  00031	83 c0 01	 add	 eax, 1
  00034	89 45 f8	 mov	 DWORD PTR _i$[ebp], eax
$LN4@static_mal:
  00037	83 7d f8 7c	 cmp	 DWORD PTR _i$[ebp], 124	; 0000007cH
  0003b	7d 26		 jge	 SHORT $LN2@static_mal

; 478  : 	{
; 479  : 		if(0 == list_node_mem_pool[i].inUse)

  0003d	8b 45 f8	 mov	 eax, DWORD PTR _i$[ebp]
  00040	c1 e0 05	 shl	 eax, 5
  00043	83 b8 18 00 00
	00 00		 cmp	 DWORD PTR _list_node_mem_pool[eax+24], 0
  0004a	75 15		 jne	 SHORT $LN1@static_mal

; 480  : 		{
; 481  : 			elem = &list_node_mem_pool[i].node;

  0004c	8b 45 f8	 mov	 eax, DWORD PTR _i$[ebp]
  0004f	c1 e0 05	 shl	 eax, 5
  00052	05 00 00 00 00	 add	 eax, OFFSET _list_node_mem_pool
  00057	89 45 ec	 mov	 DWORD PTR _elem$[ebp], eax

; 482  : 			list_node_mem_pool[i].inUse == 1;
; 483  : 			i = MEM_POOL_SIZE;

  0005a	c7 45 f8 7c 00
	00 00		 mov	 DWORD PTR _i$[ebp], 124	; 0000007cH
$LN1@static_mal:

; 484  : 		}
; 485  : 	}

  00061	eb cb		 jmp	 SHORT $LN3@static_mal
$LN2@static_mal:

; 486  : 	
; 487  : 	return elem;

  00063	8b 45 ec	 mov	 eax, DWORD PTR _elem$[ebp]

; 488  : }

  00066	5f		 pop	 edi
  00067	5e		 pop	 esi
  00068	5b		 pop	 ebx
  00069	8b e5		 mov	 esp, ebp
  0006b	5d		 pop	 ebp
  0006c	c3		 ret	 0
_static_malloc ENDP
; Function compile flags: /Odtp /RTCsu /ZI
_TEXT	ENDS
;	COMDAT _static_free
_TEXT	SEGMENT
_i$ = -8						; size = 4
_elem$ = 8						; size = 4
_static_free PROC					; COMDAT

; 491  : {

  00000	55		 push	 ebp
  00001	8b ec		 mov	 ebp, esp
  00003	81 ec cc 00 00
	00		 sub	 esp, 204		; 000000ccH
  00009	53		 push	 ebx
  0000a	56		 push	 esi
  0000b	57		 push	 edi
  0000c	8d bd 34 ff ff
	ff		 lea	 edi, DWORD PTR [ebp-204]
  00012	b9 33 00 00 00	 mov	 ecx, 51			; 00000033H
  00017	b8 cc cc cc cc	 mov	 eax, -858993460		; ccccccccH
  0001c	f3 ab		 rep stosd

; 492  : 	int i;
; 493  : 
; 494  : 	// ber ganzen mempool iterieren und freies suchen
; 495  : 	for(i = 0; i < MEM_POOL_SIZE; i++)

  0001e	c7 45 f8 00 00
	00 00		 mov	 DWORD PTR _i$[ebp], 0
  00025	eb 09		 jmp	 SHORT $LN4@static_fre
$LN3@static_fre:
  00027	8b 45 f8	 mov	 eax, DWORD PTR _i$[ebp]
  0002a	83 c0 01	 add	 eax, 1
  0002d	89 45 f8	 mov	 DWORD PTR _i$[ebp], eax
$LN4@static_fre:
  00030	83 7d f8 7c	 cmp	 DWORD PTR _i$[ebp], 124	; 0000007cH
  00034	7d 19		 jge	 SHORT $LN5@static_fre

; 496  : 	{
; 497  : 		if(elem == &list_node_mem_pool[i].node)

  00036	8b 45 f8	 mov	 eax, DWORD PTR _i$[ebp]
  00039	c1 e0 05	 shl	 eax, 5
  0003c	05 00 00 00 00	 add	 eax, OFFSET _list_node_mem_pool
  00041	39 45 08	 cmp	 DWORD PTR _elem$[ebp], eax
  00044	75 07		 jne	 SHORT $LN1@static_fre

; 498  : 		{
; 499  : 			list_node_mem_pool[i].inUse == 0;
; 500  : 			i = MEM_POOL_SIZE;

  00046	c7 45 f8 7c 00
	00 00		 mov	 DWORD PTR _i$[ebp], 124	; 0000007cH
$LN1@static_fre:

; 501  : 		}
; 502  : 	}

  0004d	eb d8		 jmp	 SHORT $LN3@static_fre
$LN5@static_fre:

; 503  : }

  0004f	5f		 pop	 edi
  00050	5e		 pop	 esi
  00051	5b		 pop	 ebx
  00052	8b e5		 mov	 esp, ebp
  00054	5d		 pop	 ebp
  00055	c3		 ret	 0
_static_free ENDP
_TEXT	ENDS
END
